; ModuleID = '24/563.c'
source_filename = "24/563.c"
target datalayout = "e-m:e-p270:32:32-p271:32:32-p272:64:64-i64:64-f80:128-n8:16:32:64-S128"
target triple = "x86_64-pc-linux-gnu"

@.str = private unnamed_addr constant [3 x i8] c"%c\00", align 1
@.str.1 = private unnamed_addr constant [2 x i8] c"\0A\00", align 1

; Function Attrs: noinline nounwind uwtable
define dso_local void @main() #0 {
  %1 = alloca [500 x i8], align 16
  %2 = alloca i32, align 4
  %3 = alloca i32, align 4
  %4 = alloca i32, align 4
  %5 = alloca i32, align 4
  %6 = alloca [50 x i32], align 16
  %7 = alloca [50 x i32], align 16
  %8 = alloca i32, align 4
  %9 = alloca i32, align 4
  %10 = alloca i32, align 4
  %11 = alloca i32, align 4
  store i32 1, i32* %4, align 4
  store i32 1, i32* %5, align 4
  store i32 1, i32* %8, align 4
  store i32 1, i32* %9, align 4
  %12 = getelementptr inbounds [500 x i8], [500 x i8]* %1, i64 0, i64 0
  %13 = call i32 (i8*, ...) bitcast (i32 (...)* @gets to i32 (i8*, ...)*)(i8* %12)
  %14 = getelementptr inbounds [50 x i32], [50 x i32]* %6, i64 0, i64 0
  store i32 0, i32* %14, align 16
  store i32 0, i32* %2, align 4
  br label %15

15:                                               ; preds = %53, %0
  %16 = load i32, i32* %2, align 4
  %17 = sext i32 %16 to i64
  %18 = getelementptr inbounds [500 x i8], [500 x i8]* %1, i64 0, i64 %17
  %19 = load i8, i8* %18, align 1
  %20 = sext i8 %19 to i32
  %21 = icmp ne i32 %20, 0
  br i1 %21, label %22, label %56

22:                                               ; preds = %15
  %23 = load i32, i32* %2, align 4
  %24 = sext i32 %23 to i64
  %25 = getelementptr inbounds [500 x i8], [500 x i8]* %1, i64 0, i64 %24
  %26 = load i8, i8* %25, align 1
  %27 = sext i8 %26 to i32
  %28 = icmp eq i32 %27, 32
  br i1 %28, label %29, label %52

29:                                               ; preds = %22
  %30 = load i32, i32* %2, align 4
  %31 = load i32, i32* %4, align 4
  %32 = sext i32 %31 to i64
  %33 = getelementptr inbounds [50 x i32], [50 x i32]* %6, i64 0, i64 %32
  store i32 %30, i32* %33, align 4
  %34 = load i32, i32* %4, align 4
  %35 = sext i32 %34 to i64
  %36 = getelementptr inbounds [50 x i32], [50 x i32]* %6, i64 0, i64 %35
  %37 = load i32, i32* %36, align 4
  %38 = load i32, i32* %4, align 4
  %39 = sub nsw i32 %38, 1
  %40 = sext i32 %39 to i64
  %41 = getelementptr inbounds [50 x i32], [50 x i32]* %6, i64 0, i64 %40
  %42 = load i32, i32* %41, align 4
  %43 = sub nsw i32 %37, %42
  %44 = sub nsw i32 %43, 1
  %45 = load i32, i32* %5, align 4
  %46 = sext i32 %45 to i64
  %47 = getelementptr inbounds [50 x i32], [50 x i32]* %7, i64 0, i64 %46
  store i32 %44, i32* %47, align 4
  %48 = load i32, i32* %4, align 4
  %49 = add nsw i32 %48, 1
  store i32 %49, i32* %4, align 4
  %50 = load i32, i32* %5, align 4
  %51 = add nsw i32 %50, 1
  store i32 %51, i32* %5, align 4
  br label %52

52:                                               ; preds = %29, %22
  br label %53

53:                                               ; preds = %52
  %54 = load i32, i32* %2, align 4
  %55 = add nsw i32 %54, 1
  store i32 %55, i32* %2, align 4
  br label %15

56:                                               ; preds = %15
  %57 = load i32, i32* %2, align 4
  %58 = load i32, i32* %4, align 4
  %59 = sext i32 %58 to i64
  %60 = getelementptr inbounds [50 x i32], [50 x i32]* %6, i64 0, i64 %59
  store i32 %57, i32* %60, align 4
  %61 = load i32, i32* %2, align 4
  %62 = load i32, i32* %4, align 4
  %63 = sub nsw i32 %62, 1
  %64 = sext i32 %63 to i64
  %65 = getelementptr inbounds [50 x i32], [50 x i32]* %6, i64 0, i64 %64
  %66 = load i32, i32* %65, align 4
  %67 = sub nsw i32 %61, %66
  %68 = sub nsw i32 %67, 1
  %69 = load i32, i32* %5, align 4
  %70 = sext i32 %69 to i64
  %71 = getelementptr inbounds [50 x i32], [50 x i32]* %7, i64 0, i64 %70
  store i32 %68, i32* %71, align 4
  %72 = getelementptr inbounds [50 x i32], [50 x i32]* %6, i64 0, i64 1
  %73 = load i32, i32* %72, align 4
  %74 = getelementptr inbounds [50 x i32], [50 x i32]* %7, i64 0, i64 1
  store i32 %73, i32* %74, align 4
  %75 = getelementptr inbounds [50 x i32], [50 x i32]* %7, i64 0, i64 1
  %76 = load i32, i32* %75, align 4
  store i32 %76, i32* %10, align 4
  %77 = getelementptr inbounds [50 x i32], [50 x i32]* %7, i64 0, i64 1
  %78 = load i32, i32* %77, align 4
  store i32 %78, i32* %11, align 4
  store i32 1, i32* %3, align 4
  br label %79

79:                                               ; preds = %111, %56
  %80 = load i32, i32* %3, align 4
  %81 = load i32, i32* %5, align 4
  %82 = icmp sle i32 %80, %81
  br i1 %82, label %83, label %114

83:                                               ; preds = %79
  %84 = load i32, i32* %10, align 4
  %85 = load i32, i32* %3, align 4
  %86 = sext i32 %85 to i64
  %87 = getelementptr inbounds [50 x i32], [50 x i32]* %7, i64 0, i64 %86
  %88 = load i32, i32* %87, align 4
  %89 = icmp sgt i32 %84, %88
  br i1 %89, label %90, label %96

90:                                               ; preds = %83
  %91 = load i32, i32* %3, align 4
  store i32 %91, i32* %8, align 4
  %92 = load i32, i32* %3, align 4
  %93 = sext i32 %92 to i64
  %94 = getelementptr inbounds [50 x i32], [50 x i32]* %7, i64 0, i64 %93
  %95 = load i32, i32* %94, align 4
  store i32 %95, i32* %10, align 4
  br label %110

96:                                               ; preds = %83
  %97 = load i32, i32* %11, align 4
  %98 = load i32, i32* %3, align 4
  %99 = sext i32 %98 to i64
  %100 = getelementptr inbounds [50 x i32], [50 x i32]* %7, i64 0, i64 %99
  %101 = load i32, i32* %100, align 4
  %102 = icmp slt i32 %97, %101
  br i1 %102, label %103, label %109

103:                                              ; preds = %96
  %104 = load i32, i32* %3, align 4
  store i32 %104, i32* %9, align 4
  %105 = load i32, i32* %3, align 4
  %106 = sext i32 %105 to i64
  %107 = getelementptr inbounds [50 x i32], [50 x i32]* %7, i64 0, i64 %106
  %108 = load i32, i32* %107, align 4
  store i32 %108, i32* %11, align 4
  br label %109

109:                                              ; preds = %103, %96
  br label %110

110:                                              ; preds = %109, %90
  br label %111

111:                                              ; preds = %110
  %112 = load i32, i32* %3, align 4
  %113 = add nsw i32 %112, 1
  store i32 %113, i32* %3, align 4
  br label %79

114:                                              ; preds = %79
  %115 = load i32, i32* %9, align 4
  %116 = icmp eq i32 %115, 1
  br i1 %116, label %117, label %134

117:                                              ; preds = %114
  store i32 0, i32* %2, align 4
  br label %118

118:                                              ; preds = %130, %117
  %119 = load i32, i32* %2, align 4
  %120 = getelementptr inbounds [50 x i32], [50 x i32]* %6, i64 0, i64 1
  %121 = load i32, i32* %120, align 4
  %122 = icmp slt i32 %119, %121
  br i1 %122, label %123, label %133

123:                                              ; preds = %118
  %124 = load i32, i32* %2, align 4
  %125 = sext i32 %124 to i64
  %126 = getelementptr inbounds [500 x i8], [500 x i8]* %1, i64 0, i64 %125
  %127 = load i8, i8* %126, align 1
  %128 = sext i8 %127 to i32
  %129 = call i32 (i8*, ...) @printf(i8* getelementptr inbounds ([3 x i8], [3 x i8]* @.str, i64 0, i64 0), i32 %128)
  br label %130

130:                                              ; preds = %123
  %131 = load i32, i32* %2, align 4
  %132 = add nsw i32 %131, 1
  store i32 %132, i32* %2, align 4
  br label %118

133:                                              ; preds = %118
  br label %159

134:                                              ; preds = %114
  %135 = load i32, i32* %9, align 4
  %136 = sub nsw i32 %135, 1
  %137 = sext i32 %136 to i64
  %138 = getelementptr inbounds [50 x i32], [50 x i32]* %6, i64 0, i64 %137
  %139 = load i32, i32* %138, align 4
  %140 = add nsw i32 %139, 1
  store i32 %140, i32* %2, align 4
  br label %141

141:                                              ; preds = %155, %134
  %142 = load i32, i32* %2, align 4
  %143 = load i32, i32* %9, align 4
  %144 = sext i32 %143 to i64
  %145 = getelementptr inbounds [50 x i32], [50 x i32]* %6, i64 0, i64 %144
  %146 = load i32, i32* %145, align 4
  %147 = icmp slt i32 %142, %146
  br i1 %147, label %148, label %158

148:                                              ; preds = %141
  %149 = load i32, i32* %2, align 4
  %150 = sext i32 %149 to i64
  %151 = getelementptr inbounds [500 x i8], [500 x i8]* %1, i64 0, i64 %150
  %152 = load i8, i8* %151, align 1
  %153 = sext i8 %152 to i32
  %154 = call i32 (i8*, ...) @printf(i8* getelementptr inbounds ([3 x i8], [3 x i8]* @.str, i64 0, i64 0), i32 %153)
  br label %155

155:                                              ; preds = %148
  %156 = load i32, i32* %2, align 4
  %157 = add nsw i32 %156, 1
  store i32 %157, i32* %2, align 4
  br label %141

158:                                              ; preds = %141
  br label %159

159:                                              ; preds = %158, %133
  %160 = call i32 (i8*, ...) @printf(i8* getelementptr inbounds ([2 x i8], [2 x i8]* @.str.1, i64 0, i64 0))
  %161 = load i32, i32* %8, align 4
  %162 = icmp eq i32 %161, 1
  br i1 %162, label %163, label %180

163:                                              ; preds = %159
  store i32 0, i32* %2, align 4
  br label %164

164:                                              ; preds = %176, %163
  %165 = load i32, i32* %2, align 4
  %166 = getelementptr inbounds [50 x i32], [50 x i32]* %6, i64 0, i64 1
  %167 = load i32, i32* %166, align 4
  %168 = icmp slt i32 %165, %167
  br i1 %168, label %169, label %179

169:                                              ; preds = %164
  %170 = load i32, i32* %2, align 4
  %171 = sext i32 %170 to i64
  %172 = getelementptr inbounds [500 x i8], [500 x i8]* %1, i64 0, i64 %171
  %173 = load i8, i8* %172, align 1
  %174 = sext i8 %173 to i32
  %175 = call i32 (i8*, ...) @printf(i8* getelementptr inbounds ([3 x i8], [3 x i8]* @.str, i64 0, i64 0), i32 %174)
  br label %176

176:                                              ; preds = %169
  %177 = load i32, i32* %2, align 4
  %178 = add nsw i32 %177, 1
  store i32 %178, i32* %2, align 4
  br label %164

179:                                              ; preds = %164
  br label %205

180:                                              ; preds = %159
  %181 = load i32, i32* %8, align 4
  %182 = sub nsw i32 %181, 1
  %183 = sext i32 %182 to i64
  %184 = getelementptr inbounds [50 x i32], [50 x i32]* %6, i64 0, i64 %183
  %185 = load i32, i32* %184, align 4
  %186 = add nsw i32 %185, 1
  store i32 %186, i32* %2, align 4
  br label %187

187:                                              ; preds = %201, %180
  %188 = load i32, i32* %2, align 4
  %189 = load i32, i32* %8, align 4
  %190 = sext i32 %189 to i64
  %191 = getelementptr inbounds [50 x i32], [50 x i32]* %6, i64 0, i64 %190
  %192 = load i32, i32* %191, align 4
  %193 = icmp slt i32 %188, %192
  br i1 %193, label %194, label %204

194:                                              ; preds = %187
  %195 = load i32, i32* %2, align 4
  %196 = sext i32 %195 to i64
  %197 = getelementptr inbounds [500 x i8], [500 x i8]* %1, i64 0, i64 %196
  %198 = load i8, i8* %197, align 1
  %199 = sext i8 %198 to i32
  %200 = call i32 (i8*, ...) @printf(i8* getelementptr inbounds ([3 x i8], [3 x i8]* @.str, i64 0, i64 0), i32 %199)
  br label %201

201:                                              ; preds = %194
  %202 = load i32, i32* %2, align 4
  %203 = add nsw i32 %202, 1
  store i32 %203, i32* %2, align 4
  br label %187

204:                                              ; preds = %187
  br label %205

205:                                              ; preds = %204, %179
  ret void
}

declare dso_local i32 @gets(...) #1

declare dso_local i32 @printf(i8*, ...) #1


!llvm.module.flags = !{!0}
!llvm.ident = !{!1}

!0 = !{i32 1, !"wchar_size", i32 4}
!1 = !{!"clang version 10.0.0-4ubuntu1 "}
